target datalayout = "e-m:e-p270:32:32-p271:32:32-p272:64:64-i64:64-i128:128-f80:128-n8:16:32:64-S128"
target triple = "x86_64-pc-linux-gnu"

%struct._GtkTreeIter = type { i32, ptr, ptr, ptr }

@.str.16 = private unnamed_addr constant [6 x i8] c"drain\00", align 1
@.str.18 = private unnamed_addr constant [7 x i8] c"resume\00", align 1
@.str.22 = private unnamed_addr constant [8 x i8] c"undrain\00", align 1
@last_model = internal global ptr null, align 8
@.str.28 = private unnamed_addr constant [7 x i8] c"NoResp\00", align 1

; Function Attrs: nounwind uwtable
define dso_local ptr @create_model_node(i32 noundef %0) #0 {
  %2 = alloca i32, align 4
  %3 = alloca ptr, align 8
  %4 = alloca %struct._GtkTreeIter, align 8
  %5 = alloca ptr, align 8
  %6 = alloca ptr, align 8
  %7 = alloca i32, align 4
  store i32 %0, ptr %2, align 4
  call void @llvm.lifetime.start.p0(i64 8, ptr %3) #7
  store ptr null, ptr %3, align 8
  call void @llvm.lifetime.start.p0(i64 32, ptr %4) #7
  call void @llvm.lifetime.start.p0(i64 8, ptr %5) #7
  store ptr null, ptr %5, align 8
  call void @llvm.lifetime.start.p0(i64 8, ptr %6) #7
  store ptr null, ptr %6, align 8
  call void @llvm.lifetime.start.p0(i64 4, ptr %7) #7
  store i32 0, ptr %7, align 4
  store ptr null, ptr @last_model, align 8
  %8 = load i32, ptr %2, align 4
  switch i32 %8, label %39 [
    i32 32, label %9
  ]

9:                                                ; preds = %1
  %10 = call ptr (i32, ...) @gtk_list_store_new(i32 noundef 2, i64 noundef 64, i64 noundef 24)
  store ptr %10, ptr %3, align 8
  %11 = load ptr, ptr %3, align 8
  call void @gtk_list_store_append(ptr noundef %11, ptr noundef %4)
  %12 = load ptr, ptr %3, align 8
  %13 = load i32, ptr %7, align 4
  call void (ptr, ptr, ...) @gtk_list_store_set(ptr noundef %12, ptr noundef %4, i32 noundef 0, ptr noundef @.str.16, i32 noundef 1, i32 noundef %13, i32 noundef -1)
  %14 = load ptr, ptr %3, align 8
  call void @gtk_list_store_append(ptr noundef %14, ptr noundef %4)
  %15 = load ptr, ptr %3, align 8
  %16 = load i32, ptr %7, align 4
  call void (ptr, ptr, ...) @gtk_list_store_set(ptr noundef %15, ptr noundef %4, i32 noundef 0, ptr noundef @.str.28, i32 noundef 1, i32 noundef %16, i32 noundef -1)
  %17 = load ptr, ptr %3, align 8
  call void @gtk_list_store_append(ptr noundef %17, ptr noundef %4)
  %18 = load ptr, ptr %3, align 8
  %19 = load i32, ptr %7, align 4
  call void (ptr, ptr, ...) @gtk_list_store_set(ptr noundef %18, ptr noundef %4, i32 noundef 0, ptr noundef @.str.18, i32 noundef 1, i32 noundef %19, i32 noundef -1)
  %20 = load ptr, ptr %3, align 8
  call void @gtk_list_store_append(ptr noundef %20, ptr noundef %4)
  %21 = load ptr, ptr %3, align 8
  %22 = load i32, ptr %7, align 4
  call void (ptr, ptr, ...) @gtk_list_store_set(ptr noundef %21, ptr noundef %4, i32 noundef 0, ptr noundef @.str.22, i32 noundef 1, i32 noundef %22, i32 noundef -1)
  store i32 0, ptr %7, align 4
  br label %23

23:                                               ; preds = %35, %9
  %24 = load i32, ptr %7, align 4
  %25 = icmp slt i32 %24, 7
  br i1 %25, label %26, label %38

26:                                               ; preds = %23
  %27 = load i32, ptr %7, align 4
  %28 = call ptr @node_state_string(i32 noundef %27)
  store ptr %28, ptr %5, align 8
  %29 = load ptr, ptr %3, align 8
  call void @gtk_list_store_append(ptr noundef %29, ptr noundef %4)
  %30 = load ptr, ptr %5, align 8
  %31 = call ptr @str_tolower(ptr noundef %30)
  store ptr %31, ptr %6, align 8
  %32 = load ptr, ptr %3, align 8
  %33 = load ptr, ptr %6, align 8
  %34 = load i32, ptr %7, align 4
  call void (ptr, ptr, ...) @gtk_list_store_set(ptr noundef %32, ptr noundef %4, i32 noundef 0, ptr noundef %33, i32 noundef 1, i32 noundef %34, i32 noundef -1)
  call void @slurm_xfree(ptr noundef %6)
  br label %35

35:                                               ; preds = %26
  %36 = load i32, ptr %7, align 4
  %37 = add nsw i32 %36, 1
  store i32 %37, ptr %7, align 4
  br label %23, !llvm.loop !17

38:                                               ; preds = %23
  br label %39

39:                                               ; preds = %1, %38
  %40 = load ptr, ptr %3, align 8
  call void @llvm.lifetime.end.p0(i64 4, ptr %7) #7
  call void @llvm.lifetime.end.p0(i64 8, ptr %6) #7
  call void @llvm.lifetime.end.p0(i64 8, ptr %5) #7
  call void @llvm.lifetime.end.p0(i64 32, ptr %4) #7
  call void @llvm.lifetime.end.p0(i64 8, ptr %3) #7
  ret ptr %40
}