; Function Attrs: nounwind uwtable
define dso_local noundef ptr @create_model_node(i32 noundef %0) #0 {
  %2 = alloca %struct._GtkTreeIter, align 8
  %3 = alloca ptr, align 8
  call void @llvm.lifetime.start.p0(i64 32, ptr nonnull %2) #11
  call void @llvm.lifetime.start.p0(i64 8, ptr nonnull %3) #11
  store ptr null, ptr %3, align 8
  store ptr null, ptr @last_model, align 8
  %cond = icmp eq i32 %0, 32
  br i1 %cond, label %4, label %.loopexit

4:                                                ; preds = %1
  %5 = tail call ptr (i32, ...) @gtk_list_store_new(i32 noundef 2, i64 noundef 64, i64 noundef 24) #11
  call void @gtk_list_store_append(ptr noundef %5, ptr noundef nonnull %2) #11
  call void (ptr, ptr, ...) @gtk_list_store_set(ptr noundef %5, ptr noundef nonnull %2, i32 noundef 0, ptr noundef nonnull @.str.16, i32 noundef 1, i32 noundef 0, i32 noundef -1) #11
  call void @gtk_list_store_append(ptr noundef %5, ptr noundef nonnull %2) #11
  call void (ptr, ptr, ...) @gtk_list_store_set(ptr noundef %5, ptr noundef nonnull %2, i32 noundef 0, ptr noundef nonnull @.str.28, i32 noundef 1, i32 noundef 0, i32 noundef -1) #11
  call void @gtk_list_store_append(ptr noundef %5, ptr noundef nonnull %2) #11
  call void (ptr, ptr, ...) @gtk_list_store_set(ptr noundef %5, ptr noundef nonnull %2, i32 noundef 0, ptr noundef nonnull @.str.18, i32 noundef 1, i32 noundef 0, i32 noundef -1) #11
  call void @gtk_list_store_append(ptr noundef %5, ptr noundef nonnull %2) #11
  call void (ptr, ptr, ...) @gtk_list_store_set(ptr noundef %5, ptr noundef nonnull %2, i32 noundef 0, ptr noundef nonnull @.str.22, i32 noundef 1, i32 noundef 0, i32 noundef -1) #11
  br label %6

6:                                                ; preds = %4, %6
  %.021 = phi i32 [ 0, %4 ], [ %9, %6 ]
  %7 = call ptr @node_state_string(i32 noundef %.021) #11
  call void @gtk_list_store_append(ptr noundef %5, ptr noundef nonnull %2) #11
  %8 = call ptr @str_tolower(ptr noundef %7) #11
  store ptr %8, ptr %3, align 8
  call void (ptr, ptr, ...) @gtk_list_store_set(ptr noundef %5, ptr noundef nonnull %2, i32 noundef 0, ptr noundef %8, i32 noundef 1, i32 noundef %.021, i32 noundef -1) #11
  call void @slurm_xfree(ptr noundef nonnull %3) #11
  %9 = add nuw nsw i32 %.021, 1
  %exitcond.not = icmp eq i32 %9, 7
  br i1 %exitcond.not, label %.loopexit, label %6, !llvm.loop !18

.loopexit:                                        ; preds = %6, %1
  %.020 = phi ptr [ null, %1 ], [ %5, %6 ]
  call void @llvm.lifetime.end.p0(i64 8, ptr nonnull %3) #11
  call void @llvm.lifetime.end.p0(i64 32, ptr nonnull %2) #11
  ret ptr %.020
}